; Function Attrs: nounwind uwtable
define dso_local void @strbuf_strip_file_from_path(ptr noundef captures(none) %0) local_unnamed_addr #3 {
  %2 = getelementptr inbounds nuw i8, ptr %0, i64 16
  %3 = load ptr, ptr %2, align 8, !tbaa !12
  %4 = tail call ptr @strrchr(ptr noundef nonnull readonly dereferenceable(1) %3, i32 noundef 47) #26
  %.not = icmp eq ptr %4, null
  br i1 %.not, label %.thread, label %5

5:                                                ; preds = %1
  %6 = ptrtoint ptr %4 to i64
  %7 = ptrtoint ptr %3 to i64
  %8 = sub i64 %6, %7
  %9 = add nsw i64 %8, 1
  %10 = load i64, ptr %0, align 8, !tbaa !15
  %spec.select.i = tail call i64 @llvm.usub.sat.i64(i64 %10, i64 1)
  %11 = icmp ugt i64 %9, %spec.select.i
  br i1 %11, label %12, label %.thread

12:                                               ; preds = %5
  tail call void (ptr, i32, ptr, ...) @BUG_fl(ptr noundef nonnull @.str.28, i32 noundef 167, ptr noundef nonnull @.str.29) #24
  unreachable

.thread:                                          ; preds = %1, %5
  %13 = phi i64 [ %9, %5 ], [ 0, %1 ]
  %14 = getelementptr inbounds nuw i8, ptr %0, i64 8
  store i64 %13, ptr %14, align 8, !tbaa !16
  %.not9.i = icmp eq ptr %3, @strbuf_slopbuf
  br i1 %.not9.i, label %strbuf_setlen.exit, label %15

15:                                               ; preds = %.thread
  %16 = getelementptr inbounds nuw i8, ptr %3, i64 %13
  store i8 0, ptr %16, align 1, !tbaa !4
  br label %strbuf_setlen.exit

strbuf_setlen.exit:                               ; preds = %.thread, %15
  ret void
}